target datalayout = "e-m:e-p270:32:32-p271:32:32-p272:64:64-i64:64-i128:128-f80:128-n8:16:32:64-S128"
target triple = "x86_64-pc-linux-gnu"

; Function Attrs: mustprogress nounwind uwtable
define noundef zeroext i8 @_ZN5arrow8internal12ReverseUint8Eh(i8 noundef zeroext %0) #3 {
  %2 = alloca i8, align 1
  store i8 %0, ptr %2, align 1, !tbaa !32
  %3 = load i8, ptr %2, align 1, !tbaa !32
  %4 = zext i8 %3 to i32
  %5 = and i32 %4, 240
  %6 = ashr i32 %5, 4
  %7 = load i8, ptr %2, align 1, !tbaa !32
  %8 = zext i8 %7 to i32
  %9 = and i32 %8, 15
  %10 = shl i32 %9, 4
  %11 = or i32 %6, %10
  %12 = trunc i32 %11 to i8
  store i8 %12, ptr %2, align 1, !tbaa !32
  %13 = load i8, ptr %2, align 1, !tbaa !32
  %14 = zext i8 %13 to i32
  %15 = and i32 %14, 204
  %16 = ashr i32 %15, 2
  %17 = load i8, ptr %2, align 1, !tbaa !32
  %18 = zext i8 %17 to i32
  %19 = and i32 %18, 51
  %20 = shl i32 %19, 2
  %21 = or i32 %16, %20
  %22 = trunc i32 %21 to i8
  store i8 %22, ptr %2, align 1, !tbaa !32
  %23 = load i8, ptr %2, align 1, !tbaa !32
  %24 = zext i8 %23 to i32
  %25 = and i32 %24, 170
  %26 = ashr i32 %25, 1
  %27 = load i8, ptr %2, align 1, !tbaa !32
  %28 = zext i8 %27 to i32
  %29 = and i32 %28, 85
  %30 = shl i32 %29, 1
  %31 = or i32 %26, %30
  %32 = trunc i32 %31 to i8
  store i8 %32, ptr %2, align 1, !tbaa !32
  %33 = load i8, ptr %2, align 1, !tbaa !32
  ret i8 %33
}

; Function Attrs: mustprogress nounwind uwtable
define noundef zeroext i8 @_ZN5arrow8internal16GetReversedBlockEhhh(i8 noundef zeroext %0, i8 noundef zeroext %1, i8 noundef zeroext %2) #3 {
  %4 = alloca i8, align 1
  %5 = alloca i8, align 1
  %6 = alloca i8, align 1
  store i8 %0, ptr %4, align 1, !tbaa !32
  store i8 %1, ptr %5, align 1, !tbaa !32
  store i8 %2, ptr %6, align 1, !tbaa !32
  %7 = load i8, ptr %5, align 1, !tbaa !32
  %8 = zext i8 %7 to i32
  %9 = shl i32 %8, 8
  %10 = load i8, ptr %4, align 1, !tbaa !32
  %11 = zext i8 %10 to i32
  %12 = add nsw i32 %9, %11
  %13 = load i8, ptr %6, align 1, !tbaa !32
  %14 = zext i8 %13 to i32
  %15 = ashr i32 %12, %14
  %16 = trunc i32 %15 to i8
  %17 = call noundef zeroext i8 @_ZN5arrow8internal12ReverseUint8Eh(i8 noundef zeroext %16)
  ret i8 %17
}

; Function Attrs: mustprogress nounwind uwtable
define linkonce_odr noundef i64 @_ZN5arrow8bit_util12BytesForBitsEl(i64 noundef %0) #3 comdat {
  %2 = alloca i64, align 8
  store i64 %0, ptr %2, align 8, !tbaa !8
  %3 = load i64, ptr %2, align 8, !tbaa !8
  %4 = ashr i64 %3, 3
  %5 = load i64, ptr %2, align 8, !tbaa !8
  %6 = and i64 %5, 7
  %7 = icmp ne i64 %6, 0
  %8 = zext i1 %7 to i64
  %9 = add nsw i64 %4, %8
  ret i64 %9
}

; Function Attrs: mustprogress uwtable
define void @_ZN5arrow8internal19ReverseBlockOffsetsEPKhlllPh(ptr noundef %0, i64 noundef %1, i64 noundef %2, i64 noundef %3, ptr noundef %4) #0 {
  %6 = alloca ptr, align 8
  %7 = alloca i64, align 8
  %8 = alloca i64, align 8
  %9 = alloca i64, align 8
  %10 = alloca ptr, align 8
  %11 = alloca i64, align 8
  %12 = alloca i64, align 8
  %13 = alloca i64, align 8
  %14 = alloca i8, align 1
  %15 = alloca i8, align 1
  %16 = alloca i8, align 1
  %17 = alloca i8, align 1
  %18 = alloca i8, align 1
  store ptr %0, ptr %6, align 8, !tbaa !3
  store i64 %1, ptr %7, align 8, !tbaa !8
  store i64 %2, ptr %8, align 8, !tbaa !8
  store i64 %3, ptr %9, align 8, !tbaa !8
  store ptr %4, ptr %10, align 8, !tbaa !3
  call void @llvm.lifetime.start.p0(i64 8, ptr %11) #18
  %19 = load i64, ptr %7, align 8, !tbaa !8
  %20 = srem i64 %19, 8
  %21 = load i64, ptr %8, align 8, !tbaa !8
  %22 = add nsw i64 %20, %21
  %23 = call noundef i64 @_ZN5arrow8bit_util12BytesForBitsEl(i64 noundef %22)
  store i64 %23, ptr %11, align 8, !tbaa !8
  %24 = load i64, ptr %7, align 8, !tbaa !8
  %25 = sdiv i64 %24, 8
  %26 = load ptr, ptr %6, align 8, !tbaa !3
  %27 = getelementptr inbounds i8, ptr %26, i64 %25
  store ptr %27, ptr %6, align 8, !tbaa !3
  %28 = load i64, ptr %9, align 8, !tbaa !8
  %29 = sdiv i64 %28, 8
  %30 = load ptr, ptr %10, align 8, !tbaa !3
  %31 = getelementptr inbounds i8, ptr %30, i64 %29
  store ptr %31, ptr %10, align 8, !tbaa !3
  call void @llvm.lifetime.start.p0(i64 8, ptr %12) #18
  %32 = load i64, ptr %11, align 8, !tbaa !8
  %33 = sub nsw i64 %32, 1
  store i64 %33, ptr %12, align 8, !tbaa !8
  call void @llvm.lifetime.start.p0(i64 8, ptr %13) #18
  store i64 0, ptr %13, align 8, !tbaa !8
  br label %34

34:                                               ; preds = %155, %5
  %35 = load i64, ptr %8, align 8, !tbaa !8
  %36 = icmp sgt i64 %35, 0
  br i1 %36, label %37, label %158

37:                                               ; preds = %34
  call void @llvm.lifetime.start.p0(i64 1, ptr %14) #18
  %38 = load i64, ptr %8, align 8, !tbaa !8
  %39 = load i64, ptr %7, align 8, !tbaa !8
  %40 = add nsw i64 %38, %39
  %41 = srem i64 %40, 8
  %42 = trunc i64 %41 to i8
  store i8 %42, ptr %14, align 1, !tbaa !32
  %43 = load i8, ptr %14, align 1, !tbaa !32
  %44 = icmp ne i8 %43, 0
  br i1 %44, label %46, label %45

45:                                               ; preds = %37
  br label %49

46:                                               ; preds = %37
  %47 = load i8, ptr %14, align 1, !tbaa !32
  %48 = zext i8 %47 to i32
  br label %49

49:                                               ; preds = %46, %45
  %50 = phi i32 [ 8, %45 ], [ %48, %46 ]
  %51 = trunc i32 %50 to i8
  store i8 %51, ptr %14, align 1, !tbaa !32
  call void @llvm.lifetime.start.p0(i64 1, ptr %15) #18
  %52 = load i64, ptr %9, align 8, !tbaa !8
  %53 = srem i64 %52, 8
  %54 = sub nsw i64 8, %53
  %55 = trunc i64 %54 to i8
  store i8 %55, ptr %15, align 1, !tbaa !32
  call void @llvm.lifetime.start.p0(i64 1, ptr %16) #18
  %56 = load i8, ptr %15, align 1, !tbaa !32
  %57 = zext i8 %56 to i32
  %58 = sub nsw i32 8, %57
  %59 = shl i32 255, %58
  %60 = trunc i32 %59 to i8
  store i8 %60, ptr %16, align 1, !tbaa !32
  %61 = load i64, ptr %8, align 8, !tbaa !8
  %62 = icmp sle i64 %61, 8
  br i1 %62, label %63, label %88

63:                                               ; preds = %49
  %64 = load i64, ptr %9, align 8, !tbaa !8
  %65 = srem i64 %64, 8
  %66 = load i64, ptr %8, align 8, !tbaa !8
  %67 = add nsw i64 %65, %66
  %68 = icmp slt i64 %67, 8
  br i1 %68, label %69, label %88

69:                                               ; preds = %63
  call void @llvm.lifetime.start.p0(i64 1, ptr %17) #18
  %70 = load i64, ptr %9, align 8, !tbaa !8
  %71 = srem i64 %70, 8
  %72 = load i64, ptr %8, align 8, !tbaa !8
  %73 = add nsw i64 %71, %72
  %74 = sub nsw i64 8, %73
  %75 = trunc i64 %74 to i8
  store i8 %75, ptr %17, align 1, !tbaa !32
  %76 = load i8, ptr %17, align 1, !tbaa !32
  %77 = zext i8 %76 to i32
  %78 = load i8, ptr %16, align 1, !tbaa !32
  %79 = zext i8 %78 to i32
  %80 = shl i32 %79, %77
  %81 = trunc i32 %80 to i8
  store i8 %81, ptr %16, align 1, !tbaa !32
  %82 = load i8, ptr %17, align 1, !tbaa !32
  %83 = zext i8 %82 to i32
  %84 = load i8, ptr %16, align 1, !tbaa !32
  %85 = zext i8 %84 to i32
  %86 = ashr i32 %85, %83
  %87 = trunc i32 %86 to i8
  store i8 %87, ptr %16, align 1, !tbaa !32
  call void @llvm.lifetime.end.p0(i64 1, ptr %17) #18
  br label %88

88:                                               ; preds = %69, %63, %49
  call void @llvm.lifetime.start.p0(i64 1, ptr %18) #18
  %89 = load i64, ptr %12, align 8, !tbaa !8
  %90 = icmp eq i64 %89, 0
  br i1 %90, label %91, label %100

91:                                               ; preds = %88
  %92 = load ptr, ptr %6, align 8, !tbaa !3
  %93 = getelementptr inbounds i8, ptr %92, i64 0
  %94 = load i8, ptr %93, align 1, !tbaa !32
  %95 = load ptr, ptr %6, align 8, !tbaa !3
  %96 = getelementptr inbounds i8, ptr %95, i64 0
  %97 = load i8, ptr %96, align 1, !tbaa !32
  %98 = load i8, ptr %14, align 1, !tbaa !32
  %99 = call noundef zeroext i8 @_ZN5arrow8internal16GetReversedBlockEhhh(i8 noundef zeroext %94, i8 noundef zeroext %97, i8 noundef zeroext %98)
  store i8 %99, ptr %18, align 1, !tbaa !32
  br label %112

100:                                              ; preds = %88
  %101 = load ptr, ptr %6, align 8, !tbaa !3
  %102 = load i64, ptr %12, align 8, !tbaa !8
  %103 = sub nsw i64 %102, 1
  %104 = getelementptr inbounds i8, ptr %101, i64 %103
  %105 = load i8, ptr %104, align 1, !tbaa !32
  %106 = load ptr, ptr %6, align 8, !tbaa !3
  %107 = load i64, ptr %12, align 8, !tbaa !8
  %108 = getelementptr inbounds i8, ptr %106, i64 %107
  %109 = load i8, ptr %108, align 1, !tbaa !32
  %110 = load i8, ptr %14, align 1, !tbaa !32
  %111 = call noundef zeroext i8 @_ZN5arrow8internal16GetReversedBlockEhhh(i8 noundef zeroext %105, i8 noundef zeroext %109, i8 noundef zeroext %110)
  store i8 %111, ptr %18, align 1, !tbaa !32
  br label %112

112:                                              ; preds = %100, %91
  %113 = load i8, ptr %16, align 1, !tbaa !32
  %114 = zext i8 %113 to i32
  %115 = xor i32 %114, -1
  %116 = load ptr, ptr %10, align 8, !tbaa !3
  %117 = load i64, ptr %13, align 8, !tbaa !8
  %118 = getelementptr inbounds i8, ptr %116, i64 %117
  %119 = load i8, ptr %118, align 1, !tbaa !32
  %120 = zext i8 %119 to i32
  %121 = and i32 %120, %115
  %122 = trunc i32 %121 to i8
  store i8 %122, ptr %118, align 1, !tbaa !32
  %123 = load i8, ptr %18, align 1, !tbaa !32
  %124 = zext i8 %123 to i32
  %125 = load i8, ptr %15, align 1, !tbaa !32
  %126 = zext i8 %125 to i32
  %127 = sub nsw i32 8, %126
  %128 = shl i32 %124, %127
  %129 = load i8, ptr %16, align 1, !tbaa !32
  %130 = zext i8 %129 to i32
  %131 = and i32 %128, %130
  %132 = load ptr, ptr %10, align 8, !tbaa !3
  %133 = load i64, ptr %13, align 8, !tbaa !8
  %134 = getelementptr inbounds i8, ptr %132, i64 %133
  %135 = load i8, ptr %134, align 1, !tbaa !32
  %136 = zext i8 %135 to i32
  %137 = or i32 %136, %131
  %138 = trunc i32 %137 to i8
  store i8 %138, ptr %134, align 1, !tbaa !32
  %139 = load i8, ptr %15, align 1, !tbaa !32
  %140 = zext i8 %139 to i64
  %141 = load i64, ptr %9, align 8, !tbaa !8
  %142 = add nsw i64 %141, %140
  store i64 %142, ptr %9, align 8, !tbaa !8
  %143 = load i8, ptr %15, align 1, !tbaa !32
  %144 = zext i8 %143 to i64
  %145 = load i64, ptr %8, align 8, !tbaa !8
  %146 = sub nsw i64 %145, %144
  store i64 %146, ptr %8, align 8, !tbaa !8
  %147 = load i8, ptr %15, align 1, !tbaa !32
  %148 = zext i8 %147 to i32
  %149 = load i8, ptr %14, align 1, !tbaa !32
  %150 = zext i8 %149 to i32
  %151 = icmp sge i32 %148, %150
  br i1 %151, label %152, label %155

152:                                              ; preds = %112
  %153 = load i64, ptr %12, align 8, !tbaa !8
  %154 = add nsw i64 %153, -1
  store i64 %154, ptr %12, align 8, !tbaa !8
  br label %155

155:                                              ; preds = %152, %112
  %156 = load i64, ptr %13, align 8, !tbaa !8
  %157 = add nsw i64 %156, 1
  store i64 %157, ptr %13, align 8, !tbaa !8
  call void @llvm.lifetime.end.p0(i64 1, ptr %18) #18
  call void @llvm.lifetime.end.p0(i64 1, ptr %16) #18
  call void @llvm.lifetime.end.p0(i64 1, ptr %15) #18
  call void @llvm.lifetime.end.p0(i64 1, ptr %14) #18
  br label %34, !llvm.loop !46

158:                                              ; preds = %34
  call void @llvm.lifetime.end.p0(i64 8, ptr %13) #18
  call void @llvm.lifetime.end.p0(i64 8, ptr %12) #18
  call void @llvm.lifetime.end.p0(i64 8, ptr %11) #18
  ret void
}

; Function Attrs: mustprogress uwtable
define void @_ZN5arrow8internal13ReverseBitmapEPKhllPhl(ptr noundef %0, i64 noundef %1, i64 noundef %2, ptr noundef %3, i64 noundef %4) #0 {
  %6 = alloca ptr, align 8
  %7 = alloca i64, align 8
  %8 = alloca i64, align 8
  %9 = alloca ptr, align 8
  %10 = alloca i64, align 8
  store ptr %0, ptr %6, align 8, !tbaa !3
  store i64 %1, ptr %7, align 8, !tbaa !8
  store i64 %2, ptr %8, align 8, !tbaa !8
  store ptr %3, ptr %9, align 8, !tbaa !3
  store i64 %4, ptr %10, align 8, !tbaa !8
  %11 = load ptr, ptr %6, align 8, !tbaa !3
  %12 = load i64, ptr %7, align 8, !tbaa !8
  %13 = load i64, ptr %8, align 8, !tbaa !8
  %14 = load i64, ptr %10, align 8, !tbaa !8
  %15 = load ptr, ptr %9, align 8, !tbaa !3
  call void @_ZN5arrow8internal19ReverseBlockOffsetsEPKhlllPh(ptr noundef %11, i64 noundef %12, i64 noundef %13, i64 noundef %14, ptr noundef %15)
  ret void
}