; Function Attrs: mustprogress nofree norecurse nosync nounwind memory(argmem: readwrite) uwtable
define void @_ZN5arrow8internal13ReverseBitmapEPKhllPhl(ptr noundef readonly captures(none) %0, i64 noundef %1, i64 noundef %2, ptr noundef captures(none) %3, i64 noundef %4) local_unnamed_addr #5 {
  %6 = sdiv i64 %1, 8
  %7 = srem i64 %1, 8
  %8 = getelementptr inbounds i8, ptr %0, i64 %6
  %9 = sdiv i64 %4, 8
  %10 = getelementptr inbounds i8, ptr %3, i64 %9
  %invariant.gep.i = getelementptr i8, ptr %8, i64 -1
  %11 = icmp sgt i64 %2, 0
  br i1 %11, label %.lr.ph.preheader.i, label %_ZN5arrow8internal19ReverseBlockOffsetsEPKhlllPh.exit

.lr.ph.preheader.i:                               ; preds = %5
  %12 = add nsw i64 %7, %2
  %13 = ashr i64 %12, 3
  %14 = add nsw i64 %13, -1
  %15 = and i64 %12, 7
  %16 = icmp ne i64 %15, 0
  %17 = zext i1 %16 to i64
  %18 = add nsw i64 %14, %17
  br label %.lr.ph.i

.lr.ph.i:                                         ; preds = %49, %.lr.ph.preheader.i
  %.04858.i = phi i64 [ %65, %49 ], [ %2, %.lr.ph.preheader.i ]
  %.04957.i = phi i64 [ %67, %49 ], [ 0, %.lr.ph.preheader.i ]
  %.05056.i = phi i64 [ %spec.select.i, %49 ], [ %18, %.lr.ph.preheader.i ]
  %.05155.i = phi i64 [ %64, %49 ], [ %4, %.lr.ph.preheader.i ]
  %19 = add nsw i64 %.04858.i, %1
  %20 = srem i64 %19, 8
  %21 = trunc nsw i64 %20 to i8
  %.not.i = icmp eq i64 %20, 0
  %22 = select i1 %.not.i, i8 8, i8 %21
  %23 = srem i64 %.05155.i, 8
  %24 = trunc nsw i64 %23 to i8
  %25 = sub nsw i8 8, %24
  %26 = zext nneg i8 %25 to i32
  %27 = sub nsw i32 8, %26
  %28 = shl nuw nsw i32 255, %27
  %29 = icmp samesign ult i64 %.04858.i, 9
  br i1 %29, label %30, label %39

30:                                               ; preds = %.lr.ph.i
  %31 = add nsw i64 %23, %.04858.i
  %32 = icmp slt i64 %31, 8
  br i1 %32, label %33, label %39

33:                                               ; preds = %30
  %34 = trunc i64 %31 to i32
  %35 = sub nsw i32 8, %34
  %36 = shl i32 %28, %35
  %37 = and i32 %36, 255
  %38 = lshr i32 %37, %35
  br label %39

39:                                               ; preds = %33, %30, %.lr.ph.i
  %.047.in.i = phi i32 [ %38, %33 ], [ %28, %30 ], [ %28, %.lr.ph.i ]
  %40 = icmp eq i64 %.05056.i, 0
  br i1 %40, label %41, label %46

41:                                               ; preds = %39
  %42 = load i8, ptr %8, align 1, !tbaa !3
  %43 = zext i8 %42 to i32
  %44 = shl nuw nsw i32 %43, 8
  %45 = or disjoint i32 %44, %43
  br label %49

46:                                               ; preds = %39
  %gep.i = getelementptr i8, ptr %invariant.gep.i, i64 %.05056.i
  %47 = load i16, ptr %gep.i, align 1
  %48 = zext i16 %47 to i32
  br label %49

49:                                               ; preds = %46, %41
  %.sink.i = phi i32 [ %48, %46 ], [ %45, %41 ]
  %50 = zext nneg i8 %22 to i32
  %51 = lshr i32 %.sink.i, %50
  %52 = trunc i32 %51 to i8
  %rev.i.i54.i = tail call noundef i8 @llvm.bitreverse.i8(i8 %52)
  %53 = getelementptr inbounds nuw i8, ptr %10, i64 %.04957.i
  %54 = load i8, ptr %53, align 1, !tbaa !3
  %55 = trunc i32 %.047.in.i to i8
  %56 = xor i8 %55, -1
  %57 = and i8 %54, %56
  %58 = zext i8 %rev.i.i54.i to i32
  %59 = shl nuw nsw i32 %58, %27
  %60 = and i32 %59, %.047.in.i
  %61 = trunc i32 %60 to i8
  %62 = or i8 %57, %61
  store i8 %62, ptr %53, align 1, !tbaa !3
  %63 = zext nneg i8 %25 to i64
  %64 = add nsw i64 %.05155.i, %63
  %65 = sub nsw i64 %.04858.i, %63
  %.not53.i = icmp uge i8 %25, %22
  %66 = sext i1 %.not53.i to i64
  %spec.select.i = add nsw i64 %.05056.i, %66
  %67 = add nuw nsw i64 %.04957.i, 1
  %68 = icmp sgt i64 %65, 0
  br i1 %68, label %.lr.ph.i, label %_ZN5arrow8internal19ReverseBlockOffsetsEPKhlllPh.exit, !llvm.loop !24

_ZN5arrow8internal19ReverseBlockOffsetsEPKhlllPh.exit: ; preds = %49, %5
  ret void
}